target datalayout = "e-m:e-p270:32:32-p271:32:32-p272:64:64-i64:64-i128:128-f80:128-n8:16:32:64-S128"
target triple = "x86_64-unknown-linux-gnu"

%class.rewriter_core = type { ptr, ptr, i8, i8, %class.ptr_vector, ptr, %class.svector.1, %class.ref_vector, %class.ptr_vector, ptr, %class.ref_vector.5, %class.obj_hashtable, ptr, i32, %class.svector.10 }
%class.svector.1 = type { %class.vector.2 }
%class.vector.2 = type { ptr }
%class.ref_vector = type { %class.ref_vector_core }
%class.ref_vector_core = type { %class.ref_manager_wrapper, %class.ptr_vector.3 }
%class.ref_manager_wrapper = type { ptr }
%class.ptr_vector.3 = type { %class.vector.4 }
%class.vector.4 = type { ptr }
%class.ptr_vector = type { %class.vector.0 }
%class.vector.0 = type { ptr }
%class.ref_vector.5 = type { %class.ref_vector_core.6 }
%class.ref_vector_core.6 = type { %class.ref_manager_wrapper.7, %class.ptr_vector.8 }
%class.ref_manager_wrapper.7 = type { ptr }
%class.ptr_vector.8 = type { %class.vector.9 }
%class.vector.9 = type { ptr }
%class.obj_hashtable = type { %class.core_hashtable.base, [4 x i8] }
%class.core_hashtable.base = type <{ ptr, i32, i32, i32 }>
%class.svector.10 = type { %class.vector.11 }
%class.vector.11 = type { ptr }

; Function Attrs: mustprogress uwtable
define linkonce_odr hidden noundef nonnull align 8 dereferenceable(8) ptr @_ZN6vectorIP9act_cacheLb0EjE9push_backERKS1_(ptr noundef nonnull align 8 dereferenceable(8) %this, ptr noundef nonnull align 8 dereferenceable(8) %elem) #4 comdat align 2 {
entry:
  %this.addr = alloca ptr, align 8
  %elem.addr = alloca ptr, align 8
  store ptr %this, ptr %this.addr, align 8
  store ptr %elem, ptr %elem.addr, align 8
  %this1 = load ptr, ptr %this.addr, align 8
  %m_data = getelementptr inbounds %class.vector.0, ptr %this1, i32 0, i32 0
  %0 = load ptr, ptr %m_data, align 8
  %cmp = icmp eq ptr %0, null
  br i1 %cmp, label %if.then, label %lor.lhs.false

lor.lhs.false:                                    ; preds = %entry
  %m_data2 = getelementptr inbounds %class.vector.0, ptr %this1, i32 0, i32 0
  %1 = load ptr, ptr %m_data2, align 8
  %arrayidx = getelementptr inbounds i32, ptr %1, i64 -1
  %2 = load i32, ptr %arrayidx, align 4
  %m_data3 = getelementptr inbounds %class.vector.0, ptr %this1, i32 0, i32 0
  %3 = load ptr, ptr %m_data3, align 8
  %arrayidx4 = getelementptr inbounds i32, ptr %3, i64 -2
  %4 = load i32, ptr %arrayidx4, align 4
  %cmp5 = icmp eq i32 %2, %4
  br i1 %cmp5, label %if.then, label %if.end

if.then:                                          ; preds = %lor.lhs.false, %entry
  call void @_ZN6vectorIP9act_cacheLb0EjE13expand_vectorEv(ptr noundef nonnull align 8 dereferenceable(8) %this1)
  br label %if.end

if.end:                                           ; preds = %if.then, %lor.lhs.false
  %m_data6 = getelementptr inbounds %class.vector.0, ptr %this1, i32 0, i32 0
  %5 = load ptr, ptr %m_data6, align 8
  %m_data7 = getelementptr inbounds %class.vector.0, ptr %this1, i32 0, i32 0
  %6 = load ptr, ptr %m_data7, align 8
  %arrayidx8 = getelementptr inbounds i32, ptr %6, i64 -1
  %7 = load i32, ptr %arrayidx8, align 4
  %idx.ext = zext i32 %7 to i64
  %add.ptr = getelementptr inbounds ptr, ptr %5, i64 %idx.ext
  %8 = load ptr, ptr %elem.addr, align 8
  %9 = load ptr, ptr %8, align 8
  store ptr %9, ptr %add.ptr, align 8
  %m_data9 = getelementptr inbounds %class.vector.0, ptr %this1, i32 0, i32 0
  %10 = load ptr, ptr %m_data9, align 8
  %arrayidx10 = getelementptr inbounds i32, ptr %10, i64 -1
  %11 = load i32, ptr %arrayidx10, align 4
  %inc = add i32 %11, 1
  store i32 %inc, ptr %arrayidx10, align 4
  ret ptr %this1
}

; Function Attrs: mustprogress nounwind uwtable
define linkonce_odr hidden noundef nonnull align 8 dereferenceable(976) ptr @_ZNK13rewriter_core1mEv(ptr noundef nonnull align 8 dereferenceable(144) %this) #5 comdat align 2 {
entry:
  %this.addr = alloca ptr, align 8
  store ptr %this, ptr %this.addr, align 8
  %this1 = load ptr, ptr %this.addr, align 8
  %m_manager = getelementptr inbounds %class.rewriter_core, ptr %this1, i32 0, i32 1
  %0 = load ptr, ptr %m_manager, align 8
  ret ptr %0
}

; Function Attrs: mustprogress uwtable
define hidden void @_ZN13rewriter_core16init_cache_stackEv(ptr noundef nonnull align 8 dereferenceable(144) %this) #4 align 2 {
entry:
  %this.addr = alloca ptr, align 8
  store ptr %this, ptr %this.addr, align 8
  %this1 = load ptr, ptr %this.addr, align 8
  %call = call noalias noundef ptr @_ZN6memory8allocateEm(i64 noundef 96)
  %call2 = call noundef nonnull align 8 dereferenceable(976) ptr @_ZNK13rewriter_core1mEv(ptr noundef nonnull align 8 dereferenceable(144) %this1)
  call void @_ZN9act_cacheC1ER11ast_manager(ptr noundef nonnull align 8 dereferenceable(92) %call, ptr noundef nonnull align 8 dereferenceable(976) %call2)
  %m_cache = getelementptr inbounds %class.rewriter_core, ptr %this1, i32 0, i32 5
  store ptr %call, ptr %m_cache, align 8
  %m_cache_stack = getelementptr inbounds %class.rewriter_core, ptr %this1, i32 0, i32 4
  %m_cache3 = getelementptr inbounds %class.rewriter_core, ptr %this1, i32 0, i32 5
  %call4 = call noundef nonnull align 8 dereferenceable(8) ptr @_ZN6vectorIP9act_cacheLb0EjE9push_backERKS1_(ptr noundef nonnull align 8 dereferenceable(8) %m_cache_stack, ptr noundef nonnull align 8 dereferenceable(8) %m_cache3)
  %m_proof_gen = getelementptr inbounds %class.rewriter_core, ptr %this1, i32 0, i32 2
  %0 = load i8, ptr %m_proof_gen, align 8
  %tobool = trunc i8 %0 to i1
  br i1 %tobool, label %if.then, label %if.end

if.then:                                          ; preds = %entry
  %call5 = call noalias noundef ptr @_ZN6memory8allocateEm(i64 noundef 96)
  %call6 = call noundef nonnull align 8 dereferenceable(976) ptr @_ZNK13rewriter_core1mEv(ptr noundef nonnull align 8 dereferenceable(144) %this1)
  call void @_ZN9act_cacheC1ER11ast_manager(ptr noundef nonnull align 8 dereferenceable(92) %call5, ptr noundef nonnull align 8 dereferenceable(976) %call6)
  %m_cache_pr = getelementptr inbounds %class.rewriter_core, ptr %this1, i32 0, i32 9
  store ptr %call5, ptr %m_cache_pr, align 8
  %m_cache_pr_stack = getelementptr inbounds %class.rewriter_core, ptr %this1, i32 0, i32 8
  %m_cache_pr7 = getelementptr inbounds %class.rewriter_core, ptr %this1, i32 0, i32 9
  %call8 = call noundef nonnull align 8 dereferenceable(8) ptr @_ZN6vectorIP9act_cacheLb0EjE9push_backERKS1_(ptr noundef nonnull align 8 dereferenceable(8) %m_cache_pr_stack, ptr noundef nonnull align 8 dereferenceable(8) %m_cache_pr7)
  br label %if.end

if.end:                                           ; preds = %if.then, %entry
  ret void
}