; Function Attrs: mustprogress uwtable
define hidden void @_ZN13rewriter_core16init_cache_stackEv(ptr noundef nonnull align 8 dereferenceable(144) %this) local_unnamed_addr #3 align 2 {
entry:
  %call = tail call noalias noundef ptr @_ZN6memory8allocateEm(i64 noundef 96)
  %m_manager.i = getelementptr inbounds i8, ptr %this, i64 8
  %0 = load ptr, ptr %m_manager.i, align 8
  tail call void @_ZN9act_cacheC1ER11ast_manager(ptr noundef nonnull align 8 dereferenceable(92) %call, ptr noundef nonnull align 8 dereferenceable(976) %0)
  %m_cache = getelementptr inbounds i8, ptr %this, i64 32
  store ptr %call, ptr %m_cache, align 8
  %m_cache_stack = getelementptr inbounds i8, ptr %this, i64 24
  %1 = load ptr, ptr %m_cache_stack, align 8
  %cmp.i = icmp eq ptr %1, null
  br i1 %cmp.i, label %if.then.i, label %lor.lhs.false.i

lor.lhs.false.i:                                  ; preds = %entry
  %arrayidx.i = getelementptr inbounds i8, ptr %1, i64 -4
  %2 = load i32, ptr %arrayidx.i, align 4
  %arrayidx4.i = getelementptr inbounds i8, ptr %1, i64 -8
  %3 = load i32, ptr %arrayidx4.i, align 4
  %cmp5.i = icmp eq i32 %2, %3
  br i1 %cmp5.i, label %if.then.i, label %_ZN6vectorIP9act_cacheLb0EjE9push_backERKS1_.exit

if.then.i:                                        ; preds = %lor.lhs.false.i, %entry
  tail call void @_ZN6vectorIP9act_cacheLb0EjE13expand_vectorEv(ptr noundef nonnull align 8 dereferenceable(8) %m_cache_stack)
  %.pre.i = load ptr, ptr %m_cache_stack, align 8
  %arrayidx8.phi.trans.insert.i = getelementptr inbounds i8, ptr %.pre.i, i64 -4
  %.pre1.i = load i32, ptr %arrayidx8.phi.trans.insert.i, align 4
  %.pre = load ptr, ptr %m_cache, align 8
  br label %_ZN6vectorIP9act_cacheLb0EjE9push_backERKS1_.exit

_ZN6vectorIP9act_cacheLb0EjE9push_backERKS1_.exit: ; preds = %lor.lhs.false.i, %if.then.i
  %4 = phi ptr [ %.pre, %if.then.i ], [ %call, %lor.lhs.false.i ]
  %5 = phi i32 [ %.pre1.i, %if.then.i ], [ %2, %lor.lhs.false.i ]
  %6 = phi ptr [ %.pre.i, %if.then.i ], [ %1, %lor.lhs.false.i ]
  %idx.ext.i = zext i32 %5 to i64
  %add.ptr.i = getelementptr inbounds ptr, ptr %6, i64 %idx.ext.i
  store ptr %4, ptr %add.ptr.i, align 8
  %7 = load ptr, ptr %m_cache_stack, align 8
  %arrayidx10.i = getelementptr inbounds i8, ptr %7, i64 -4
  %8 = load i32, ptr %arrayidx10.i, align 4
  %inc.i = add i32 %8, 1
  store i32 %inc.i, ptr %arrayidx10.i, align 4
  %m_proof_gen = getelementptr inbounds i8, ptr %this, i64 16
  %9 = load i8, ptr %m_proof_gen, align 8
  %10 = and i8 %9, 1
  %tobool.not = icmp eq i8 %10, 0
  br i1 %tobool.not, label %if.end, label %if.then

if.then:                                          ; preds = %_ZN6vectorIP9act_cacheLb0EjE9push_backERKS1_.exit
  %call5 = tail call noalias noundef ptr @_ZN6memory8allocateEm(i64 noundef 96)
  %11 = load ptr, ptr %m_manager.i, align 8
  tail call void @_ZN9act_cacheC1ER11ast_manager(ptr noundef nonnull align 8 dereferenceable(92) %call5, ptr noundef nonnull align 8 dereferenceable(976) %11)
  %m_cache_pr = getelementptr inbounds i8, ptr %this, i64 72
  store ptr %call5, ptr %m_cache_pr, align 8
  %m_cache_pr_stack = getelementptr inbounds i8, ptr %this, i64 64
  %12 = load ptr, ptr %m_cache_pr_stack, align 8
  %cmp.i2 = icmp eq ptr %12, null
  br i1 %cmp.i2, label %if.then.i11, label %lor.lhs.false.i3

lor.lhs.false.i3:                                 ; preds = %if.then
  %arrayidx.i4 = getelementptr inbounds i8, ptr %12, i64 -4
  %13 = load i32, ptr %arrayidx.i4, align 4
  %arrayidx4.i5 = getelementptr inbounds i8, ptr %12, i64 -8
  %14 = load i32, ptr %arrayidx4.i5, align 4
  %cmp5.i6 = icmp eq i32 %13, %14
  br i1 %cmp5.i6, label %if.then.i11, label %_ZN6vectorIP9act_cacheLb0EjE9push_backERKS1_.exit15

if.then.i11:                                      ; preds = %lor.lhs.false.i3, %if.then
  tail call void @_ZN6vectorIP9act_cacheLb0EjE13expand_vectorEv(ptr noundef nonnull align 8 dereferenceable(8) %m_cache_pr_stack)
  %.pre.i12 = load ptr, ptr %m_cache_pr_stack, align 8
  %arrayidx8.phi.trans.insert.i13 = getelementptr inbounds i8, ptr %.pre.i12, i64 -4
  %.pre1.i14 = load i32, ptr %arrayidx8.phi.trans.insert.i13, align 4
  %.pre16 = load ptr, ptr %m_cache_pr, align 8
  br label %_ZN6vectorIP9act_cacheLb0EjE9push_backERKS1_.exit15

_ZN6vectorIP9act_cacheLb0EjE9push_backERKS1_.exit15: ; preds = %lor.lhs.false.i3, %if.then.i11
  %15 = phi ptr [ %.pre16, %if.then.i11 ], [ %call5, %lor.lhs.false.i3 ]
  %16 = phi i32 [ %.pre1.i14, %if.then.i11 ], [ %13, %lor.lhs.false.i3 ]
  %17 = phi ptr [ %.pre.i12, %if.then.i11 ], [ %12, %lor.lhs.false.i3 ]
  %idx.ext.i7 = zext i32 %16 to i64
  %add.ptr.i8 = getelementptr inbounds ptr, ptr %17, i64 %idx.ext.i7
  store ptr %15, ptr %add.ptr.i8, align 8
  %18 = load ptr, ptr %m_cache_pr_stack, align 8
  %arrayidx10.i9 = getelementptr inbounds i8, ptr %18, i64 -4
  %19 = load i32, ptr %arrayidx10.i9, align 4
  %inc.i10 = add i32 %19, 1
  store i32 %inc.i10, ptr %arrayidx10.i9, align 4
  br label %if.end

if.end:                                           ; preds = %_ZN6vectorIP9act_cacheLb0EjE9push_backERKS1_.exit15, %_ZN6vectorIP9act_cacheLb0EjE9push_backERKS1_.exit
  ret void
}